Modules list:
-------------
savetest.o:
    CODE              Offs=000000  Size=0003DC  Align=00001  Fill=0000
    RODATA            Offs=000000  Size=0000D6  Align=00001  Fill=0000
libsedoric-ca65.o:
    CODE              Offs=0003DC  Size=0001EA  Align=00001  Fill=0000
/mnt/c/cc65/lib/atmos.lib(_cursor.o):
    BSS               Offs=000000  Size=000001  Align=00001  Fill=0000
/mnt/c/cc65/lib/atmos.lib(_directerrno.o):
    CODE              Offs=0005C6  Size=00000A  Align=00001  Fill=0000
/mnt/c/cc65/lib/atmos.lib(_heap.o):
    DATA              Offs=000000  Size=00000A  Align=00001  Fill=0000
    ONCE              Offs=000000  Size=000010  Align=00001  Fill=0000
/mnt/c/cc65/lib/atmos.lib(_hextab.o):
    RODATA            Offs=0000D6  Size=000010  Align=00001  Fill=0000
/mnt/c/cc65/lib/atmos.lib(_longminstr.o):
    RODATA            Offs=0000E6  Size=00000C  Align=00001  Fill=0000
/mnt/c/cc65/lib/atmos.lib(_oserror.o):
    BSS               Offs=000001  Size=000001  Align=00001  Fill=0000
/mnt/c/cc65/lib/atmos.lib(_printf.o):
    CODE              Offs=0005D0  Size=0003A5  Align=00001  Fill=0000
    BSS               Offs=000002  Size=00002B  Align=00001  Fill=0000
    DATA              Offs=00000A  Size=000003  Align=00001  Fill=0000
/mnt/c/cc65/lib/atmos.lib(_seterrno.o):
    CODE              Offs=000975  Size=000009  Align=00001  Fill=0000
/mnt/c/cc65/lib/atmos.lib(addeqsp.o):
    CODE              Offs=00097E  Size=000011  Align=00001  Fill=0000
/mnt/c/cc65/lib/atmos.lib(addysp.o):
    CODE              Offs=00098F  Size=00000E  Align=00001  Fill=0000
/mnt/c/cc65/lib/atmos.lib(axlong.o):
    CODE              Offs=00099D  Size=00000D  Align=00001  Fill=0000
/mnt/c/cc65/lib/atmos.lib(callmain.o):
    CODE              Offs=0009AA  Size=000017  Align=00001  Fill=0000
    DATA              Offs=00000D  Size=000004  Align=00001  Fill=0000
/mnt/c/cc65/lib/atmos.lib(capslock.o):
    CODE              Offs=0009C1  Size=000007  Align=00001  Fill=0000
    ONCE              Offs=000010  Size=00000C  Align=00001  Fill=0000
    INIT              Offs=000000  Size=000001  Align=00001  Fill=0000
/mnt/c/cc65/lib/atmos.lib(cgetc.o):
    CODE              Offs=0009C8  Size=00002F  Align=00001  Fill=0000
/mnt/c/cc65/lib/atmos.lib(clrscr.o):
    CODE              Offs=0009F7  Size=000026  Align=00001  Fill=0000
/mnt/c/cc65/lib/atmos.lib(color.o):
/mnt/c/cc65/lib/atmos.lib(condes.o):
    CODE              Offs=000A1D  Size=00000C  Align=00001  Fill=0000
    DATA              Offs=000011  Size=000025  Align=00001  Fill=0000
    ONCE              Offs=00001C  Size=00000C  Align=00001  Fill=0000
/mnt/c/cc65/lib/atmos.lib(cprintf.o):
    CODE              Offs=000A29  Size=00002A  Align=00001  Fill=0000
    BSS               Offs=00002D  Size=000001  Align=00001  Fill=0000
/mnt/c/cc65/lib/atmos.lib(cputc.o):
    CODE              Offs=000A53  Size=00004A  Align=00001  Fill=0000
    RODATA            Offs=0000F2  Size=000038  Align=00001  Fill=0000
    ONCE              Offs=000028  Size=000007  Align=00001  Fill=0000
/mnt/c/cc65/lib/atmos.lib(cputs.o):
    CODE              Offs=000A9D  Size=000023  Align=00001  Fill=0000
/mnt/c/cc65/lib/atmos.lib(crt0.o):
    STARTUP           Offs=000000  Size=000025  Align=00001  Fill=0000
    ONCE              Offs=00002F  Size=000020  Align=00001  Fill=0000
    INIT              Offs=000001  Size=00001C  Align=00001  Fill=0000
/mnt/c/cc65/lib/atmos.lib(ctype.o):
    RODATA            Offs=00012A  Size=00008B  Align=00001  Fill=0000
/mnt/c/cc65/lib/atmos.lib(ctypemask.o):
    CODE              Offs=000AC0  Size=00001E  Align=00001  Fill=0000
/mnt/c/cc65/lib/atmos.lib(decsp4.o):
    CODE              Offs=000ADE  Size=00000D  Align=00001  Fill=0000
/mnt/c/cc65/lib/atmos.lib(decsp6.o):
    CODE              Offs=000AEB  Size=00000D  Align=00001  Fill=0000
/mnt/c/cc65/lib/atmos.lib(errno.o):
    BSS               Offs=00002E  Size=000002  Align=00001  Fill=0000
/mnt/c/cc65/lib/atmos.lib(free.o):
    CODE              Offs=000AF8  Size=0001D3  Align=00001  Fill=0000
/mnt/c/cc65/lib/atmos.lib(gotoxy.o):
    CODE              Offs=000CCB  Size=00000D  Align=00001  Fill=0000
/mnt/c/cc65/lib/atmos.lib(incsp2.o):
    CODE              Offs=000CD8  Size=000016  Align=00001  Fill=0000
/mnt/c/cc65/lib/atmos.lib(incsp6.o):
    CODE              Offs=000CEE  Size=000005  Align=00001  Fill=0000
/mnt/c/cc65/lib/atmos.lib(ldaxsp.o):
    CODE              Offs=000CF3  Size=000009  Align=00001  Fill=0000
/mnt/c/cc65/lib/atmos.lib(lneg.o):
    CODE              Offs=000CFC  Size=00001E  Align=00001  Fill=0000
/mnt/c/cc65/lib/atmos.lib(lpush.o):
    CODE              Offs=000D1A  Size=000021  Align=00001  Fill=0000
/mnt/c/cc65/lib/atmos.lib(ltoa.o):
    CODE              Offs=000D3B  Size=000095  Align=00001  Fill=0000
/mnt/c/cc65/lib/atmos.lib(malloc.o):
    CODE              Offs=000DD0  Size=00010E  Align=00001  Fill=0000
/mnt/c/cc65/lib/atmos.lib(memcpy.o):
    CODE              Offs=000EDE  Size=00003C  Align=00001  Fill=0000
/mnt/c/cc65/lib/atmos.lib(popa.o):
    CODE              Offs=000F1A  Size=00000C  Align=00001  Fill=0000
/mnt/c/cc65/lib/atmos.lib(popptr1.o):
    CODE              Offs=000F26  Size=00000E  Align=00001  Fill=0000
/mnt/c/cc65/lib/atmos.lib(push1.o):
    CODE              Offs=000F34  Size=000005  Align=00001  Fill=0000
/mnt/c/cc65/lib/atmos.lib(pushax.o):
    CODE              Offs=000F39  Size=00001A  Align=00001  Fill=0000
/mnt/c/cc65/lib/atmos.lib(pushwsp.o):
    CODE              Offs=000F53  Size=00001C  Align=00001  Fill=0000
/mnt/c/cc65/lib/atmos.lib(return0.o):
    CODE              Offs=000F6F  Size=000004  Align=00001  Fill=0000
/mnt/c/cc65/lib/atmos.lib(return1.o):
    CODE              Offs=000F73  Size=000005  Align=00001  Fill=0000
/mnt/c/cc65/lib/atmos.lib(revers.o):
    CODE              Offs=000F78  Size=000016  Align=00001  Fill=0000
    BSS               Offs=000030  Size=000001  Align=00001  Fill=0000
/mnt/c/cc65/lib/atmos.lib(sprintf.o):
    CODE              Offs=000F8E  Size=00002B  Align=00001  Fill=0000
    BSS               Offs=000031  Size=000001  Align=00001  Fill=0000
/mnt/c/cc65/lib/atmos.lib(staxsp.o):
    CODE              Offs=000FB9  Size=00000B  Align=00001  Fill=0000
/mnt/c/cc65/lib/atmos.lib(strlen.o):
    CODE              Offs=000FC4  Size=000016  Align=00001  Fill=0000
/mnt/c/cc65/lib/atmos.lib(strlower.o):
    CODE              Offs=000FDA  Size=000027  Align=00001  Fill=0000
/mnt/c/cc65/lib/atmos.lib(subysp.o):
    CODE              Offs=001001  Size=00000D  Align=00001  Fill=0000
/mnt/c/cc65/lib/atmos.lib(vcprintf.o):
    CODE              Offs=00100E  Size=00007A  Align=00001  Fill=0000
    DATA              Offs=000036  Size=000008  Align=00001  Fill=0000
/mnt/c/cc65/lib/atmos.lib(vsnprintf.o):
    CODE              Offs=001088  Size=0000DA  Align=00001  Fill=0000
    DATA              Offs=00003E  Size=000008  Align=00001  Fill=0000
/mnt/c/cc65/lib/atmos.lib(vsprintf.o):
    CODE              Offs=001162  Size=000012  Align=00001  Fill=0000
/mnt/c/cc65/lib/atmos.lib(zerobss.o):
    CODE              Offs=001174  Size=000023  Align=00001  Fill=0000
/mnt/c/cc65/lib/atmos.lib(zeropage.o):
    ZEROPAGE          Offs=000000  Size=00001A  Align=00001  Fill=0000


Segment list:
-------------
Name                   Start     End    Size  Align
----------------------------------------------------
ZEROPAGE              000050  000069  00001A  00001
STARTUP               000501  000525  000025  00001
CODE                  000600  001796  001197  00001
RODATA                001797  00194D  0001B7  00001
DATA                  00194E  001993  000046  00001
INIT                  001994  0019B0  00001D  00001
BSS                   0019B1  0019E2  000032  00001
ONCE                  0019B1  001A05  000055  00001


Exports list by name:
---------------------
__BSS_RUN__               0019B1 RLA    __BSS_SIZE__              000032 REA    
__CONSTRUCTOR_COUNT__     000003 REA    __CONSTRUCTOR_TABLE__     001A00 RLA    
__DESTRUCTOR_COUNT__      000001 REA    __DESTRUCTOR_TABLE__      00194C RLA    
__MAIN_SIZE__             0062FF REA    __MAIN_START__            000501 RLA    
__ONCE_RUN__              0019B1 RLA    __RAMEND__                006800 REA    
__STACKSIZE__             000800 REA    __STARTUP__               000001 REA    
__ctype                   0018C1 RLA    __ctypeidx                0018CC RLA    
__directerrno             000BC6 RLA    __errno                   0019DF RLA    
__heapend                 001952 RLA    __heapfirst               001954 RLA    
__heaplast                001956 RLA    __heapptr                 001950 RLA    
__hextab                  00186D RLA    __longminstr              00187D RLA    
__oserror                 0019B2 RLA    __printf                  000CC3 RLA    
__seterrno                000F75 RLA    _bgcolor                  00156F REA    
_cgetc                    000FC8 RLA    _clrscr                   000FF7 RLA    
_cprintf                  001029 RLA    _cputc                    00105E RLA    
_cputs                    0010A7 RLA    _free                     0010F8 RLA    
_ltoa                     001353 RLA    _main                     00068B RLA    
_malloc                   0013D0 RLA    _memcpy                   0014DE RLA    
_sed_begin                0009DE RLA    _sed_end                  0009E0 RLA    
_sed_err                  0009E4 RLA    _sed_fname                0009DC RLA    
_sed_loadfile             000A40 RLA    _sed_savefile             0009E6 RLA    
_sed_size                 0009E2 RLA    _sprintf                  00158E RLA    
_strlen                   0015C4 RLA    _strlower                 0015DA RLA    
_textcolor                001573 REA    _ultoa                    001394 RLA    
_vcprintf                 001658 RLA    _vsprintf                 001762 RLA    
addeqysp                  000F80 RLA    addysp                    000F90 RLA    
axlong                    000F9D RLA    axulong                   000FA3 RLA    
callmain                  000FAA RLA    ctypemaskdirect           0010C4 RLA    
cursor                    0019B1 RLA    decsp4                    0010DE RLA    
decsp6                    0010EB RLA    disable_caps              0019C1 RLAI   
donelib                   00101D RLA    gotoxy                    0012CB RLA    
incsp2                    0012E0 RLA    incsp6                    0012EE RLA    
initcputc                 0019D9  LAI   initheap                  0019B1  LAI   
initlib                   0019CD RLA    ldaxysp                   0012F5 RLA    
negeax                    0012FC RLA    popa                      00151A RLA    
popax                     0012D8 RLA    popptr1                   001526 RLA    
ptr1                      000058 RLZ    ptr2                      00005A RLZ    
ptr3                      00005C RLZ    ptr4                      00005E RLZ    
push1                     001534 RLA    pusha0                    00153B RLA    
pushax                    00153D RLA    pusheax                   001323 RLA    
pushw0sp                  001553 RLA    pushwysp                  001555 RLA    
regbank                   000064 RLZ    restore_caps              000FC1  LAI   
return0                   00156F RLA    return1                   001573 RLA    
rvs                       0019E1 RLA    sp                        000050 RLZ    
sreg                      000052 RLZ    staxysp                   0015BB RLA    
subysp                    001601 RLA    tmp1                      000060 RLZ    
vsnprintf                 00168B RLA    zerobss                   001774 RLA    



Exports list by value:
----------------------
__DESTRUCTOR_COUNT__      000001 REA    __STARTUP__               000001 REA    
__CONSTRUCTOR_COUNT__     000003 REA    __BSS_SIZE__              000032 REA    
sp                        000050 RLZ    sreg                      000052 RLZ    
ptr1                      000058 RLZ    ptr2                      00005A RLZ    
ptr3                      00005C RLZ    ptr4                      00005E RLZ    
tmp1                      000060 RLZ    regbank                   000064 RLZ    
__MAIN_START__            000501 RLA    _main                     00068B RLA    
__STACKSIZE__             000800 REA    _sed_fname                0009DC RLA    
_sed_begin                0009DE RLA    _sed_end                  0009E0 RLA    
_sed_size                 0009E2 RLA    _sed_err                  0009E4 RLA    
_sed_savefile             0009E6 RLA    _sed_loadfile             000A40 RLA    
__directerrno             000BC6 RLA    __printf                  000CC3 RLA    
__seterrno                000F75 RLA    addeqysp                  000F80 RLA    
addysp                    000F90 RLA    axlong                    000F9D RLA    
axulong                   000FA3 RLA    callmain                  000FAA RLA    
restore_caps              000FC1  LAI   _cgetc                    000FC8 RLA    
_clrscr                   000FF7 RLA    donelib                   00101D RLA    
_cprintf                  001029 RLA    _cputc                    00105E RLA    
_cputs                    0010A7 RLA    ctypemaskdirect           0010C4 RLA    
decsp4                    0010DE RLA    decsp6                    0010EB RLA    
_free                     0010F8 RLA    gotoxy                    0012CB RLA    
popax                     0012D8 RLA    incsp2                    0012E0 RLA    
incsp6                    0012EE RLA    ldaxysp                   0012F5 RLA    
negeax                    0012FC RLA    pusheax                   001323 RLA    
_ltoa                     001353 RLA    _ultoa                    001394 RLA    
_malloc                   0013D0 RLA    _memcpy                   0014DE RLA    
popa                      00151A RLA    popptr1                   001526 RLA    
push1                     001534 RLA    pusha0                    00153B RLA    
pushax                    00153D RLA    pushw0sp                  001553 RLA    
pushwysp                  001555 RLA    _bgcolor                  00156F REA    
return0                   00156F RLA    _textcolor                001573 REA    
return1                   001573 RLA    _sprintf                  00158E RLA    
staxysp                   0015BB RLA    _strlen                   0015C4 RLA    
_strlower                 0015DA RLA    subysp                    001601 RLA    
_vcprintf                 001658 RLA    vsnprintf                 00168B RLA    
_vsprintf                 001762 RLA    zerobss                   001774 RLA    
__hextab                  00186D RLA    __longminstr              00187D RLA    
__ctype                   0018C1 RLA    __ctypeidx                0018CC RLA    
__DESTRUCTOR_TABLE__      00194C RLA    __heapptr                 001950 RLA    
__heapend                 001952 RLA    __heapfirst               001954 RLA    
__heaplast                001956 RLA    __BSS_RUN__               0019B1 RLA    
__ONCE_RUN__              0019B1 RLA    cursor                    0019B1 RLA    
initheap                  0019B1  LAI   __oserror                 0019B2 RLA    
disable_caps              0019C1 RLAI   initlib                   0019CD RLA    
initcputc                 0019D9  LAI   __errno                   0019DF RLA    
rvs                       0019E1 RLA    __CONSTRUCTOR_TABLE__     001A00 RLA    
__MAIN_SIZE__             0062FF REA    __RAMEND__                006800 REA    



Imports list:
-------------
__BSS_RUN__ ([linker generated]):
    _heap.o                   common/_heap.s(8)
    zerobss.o                 common/zerobss.s(8)
__BSS_SIZE__ ([linker generated]):
    _heap.o                   common/_heap.s(8)
    zerobss.o                 common/zerobss.s(8)
__CONSTRUCTOR_COUNT__ ([linker generated]):
    condes.o                  runtime/condes.s(18)
__CONSTRUCTOR_TABLE__ ([linker generated]):
    condes.o                  runtime/condes.s(18)
__DESTRUCTOR_COUNT__ ([linker generated]):
    condes.o                  runtime/condes.s(19)
__DESTRUCTOR_TABLE__ ([linker generated]):
    condes.o                  runtime/condes.s(19)
__MAIN_SIZE__ ([linker generated]):
    crt0.o                    atmos/crt0.s(13)
__MAIN_START__ ([linker generated]):
    crt0.o                    atmos/crt0.s(13)
    [linker generated]        /mnt/c/cc65/cfg/atmos.cfg(14)
__ONCE_RUN__ ([linker generated]):
    [linker generated]        /mnt/c/cc65/cfg/atmos.cfg(15)
    [linker generated]        /mnt/c/cc65/cfg/atmos.cfg(15)
__RAMEND__ ([linker generated]):
    [linker generated]        /mnt/c/cc65/cfg/atmos.cfg(15)
    [linker generated]        /mnt/c/cc65/cfg/atmos.cfg(14)
__STACKSIZE__ ([linker generated]):
    _heap.o                   common/_heap.s(8)
    [linker generated]        /mnt/c/cc65/cfg/atmos.cfg(15)
__STARTUP__ (crt0.o):
    savetest.o                src/savetest.s(13)
__ctype (ctype.o):
    ctypemask.o               common/ctypemask.s(23)
__ctypeidx (ctype.o):
    ctypemask.o               common/ctypemask.s(24)
__directerrno (_directerrno.o):
    vsnprintf.o               /mnt/c/cc65/asminc/errno.inc(10)
__errno (errno.o):
    _seterrno.o               /mnt/c/cc65/asminc/errno.inc(7)
__heapend (_heap.o):
    malloc.o                  /mnt/c/cc65/asminc/_heap.inc(33)
__heapfirst (_heap.o):
    malloc.o                  /mnt/c/cc65/asminc/_heap.inc(34)
    free.o                    /mnt/c/cc65/asminc/_heap.inc(34)
__heaplast (_heap.o):
    malloc.o                  /mnt/c/cc65/asminc/_heap.inc(35)
    free.o                    /mnt/c/cc65/asminc/_heap.inc(35)
__heapptr (_heap.o):
    malloc.o                  /mnt/c/cc65/asminc/_heap.inc(32)
    free.o                    /mnt/c/cc65/asminc/_heap.inc(32)
__hextab (_hextab.o):
    ltoa.o                    common/ltoa.s(10)
__longminstr (_longminstr.o):
    ltoa.o                    common/ltoa.s(10)
__oserror (_oserror.o):
    _directerrno.o            /mnt/c/cc65/asminc/errno.inc(7)
__printf (_printf.o):
    vsnprintf.o               common/vsnprintf.s(10)
    vcprintf.o                conio/vcprintf.s(9)
__seterrno (_seterrno.o):
    _directerrno.o            /mnt/c/cc65/asminc/errno.inc(9)
_bgcolor (color.o):
    savetest.o                src/savetest.s(23)
_cgetc (cgetc.o):
    savetest.o                src/savetest.s(21)
_clrscr (clrscr.o):
    savetest.o                src/savetest.s(17)
_cprintf (cprintf.o):
    savetest.o                src/savetest.s(20)
_cputc (cputc.o):
    vcprintf.o                conio/vcprintf.s(9)
    cputs.o                   conio/cputs.s(9)
    savetest.o                src/savetest.s(18)
_cputs (cputs.o):
    savetest.o                src/savetest.s(19)
_free (free.o):
    savetest.o                src/savetest.s(15)
_ltoa (ltoa.o):
    _printf.o                 common/_printf.s(12)
_main (savetest.o):
    callmain.o                runtime/callmain.s(11)
_malloc (malloc.o):
    savetest.o                src/savetest.s(14)
_memcpy (memcpy.o):
    vsnprintf.o               common/vsnprintf.s(10)
_sed_begin (libsedoric-ca65.o):
    savetest.o                src/savetest.s(25)
_sed_end (libsedoric-ca65.o):
    savetest.o                src/savetest.s(26)
_sed_err (libsedoric-ca65.o):
    savetest.o                src/savetest.s(28)
_sed_fname (libsedoric-ca65.o):
    savetest.o                src/savetest.s(24)
_sed_loadfile (libsedoric-ca65.o):
    savetest.o                src/savetest.s(591)
_sed_savefile (libsedoric-ca65.o):
    savetest.o                src/savetest.s(591)
_sed_size (libsedoric-ca65.o):
    savetest.o                src/savetest.s(27)
_sprintf (sprintf.o):
    savetest.o                src/savetest.s(16)
_strlen (strlen.o):
    _printf.o                 common/_printf.s(13)
_strlower (strlower.o):
    _printf.o                 common/_printf.s(13)
_textcolor (color.o):
    savetest.o                src/savetest.s(22)
_ultoa (ltoa.o):
    _printf.o                 common/_printf.s(12)
_vcprintf (vcprintf.o):
    cprintf.o                 conio/cprintf.s(8)
_vsprintf (vsprintf.o):
    sprintf.o                 common/sprintf.s(8)
addeqysp (addeqsp.o):
    savetest.o                src/savetest.s(591)
addysp (addysp.o):
    sprintf.o                 common/sprintf.s(8)
    incsp6.o                  runtime/incsp6.s(8)
    cprintf.o                 conio/cprintf.s(8)
    savetest.o                src/savetest.s(591)
axlong (axlong.o):
    _printf.o                 common/_printf.s(11)
axulong (axlong.o):
    _printf.o                 common/_printf.s(11)
callmain (callmain.o):
    crt0.o                    atmos/crt0.s(12)
ctypemaskdirect (ctypemask.o):
    strlower.o                common/strlower.s(14)
cursor (_cursor.o):
    cgetc.o                   atmos/cgetc.s(10)
decsp4 (decsp4.o):
    lpush.o                   runtime/lpush.s(12)
    sprintf.o                 common/sprintf.s(8)
    savetest.o                src/savetest.s(591)
decsp6 (decsp6.o):
    _printf.o                 common/_printf.s(11)
disable_caps (capslock.o):
    cgetc.o                   atmos/cgetc.s(11)
donelib (condes.o):
    crt0.o                    atmos/crt0.s(11)
gotoxy (gotoxy.o):
    cputs.o                   conio/cputs.s(9)
incsp2 (incsp2.o):
    vsnprintf.o               common/vsnprintf.s(9)
    popptr1.o                 runtime/popptr1.s(8)
incsp6 (incsp6.o):
    vsnprintf.o               common/vsnprintf.s(9)
    savetest.o                src/savetest.s(591)
    savetest.o                src/savetest.s(591)
initlib (condes.o):
    crt0.o                    atmos/crt0.s(11)
ldaxysp (ldaxsp.o):
    vsnprintf.o               common/vsnprintf.s(9)
negeax (lneg.o):
    ltoa.o                    common/ltoa.s(9)
popa (popa.o):
    gotoxy.o                  atmos/gotoxy.s(10)
popax (incsp2.o):
    memcpy.o                  common/memcpy.s(14)
    vsnprintf.o               common/vsnprintf.s(9)
    ltoa.o                    common/ltoa.s(9)
    _printf.o                 common/_printf.s(11)
    vcprintf.o                conio/vcprintf.s(8)
    cputc.o                   atmos/cputc.s(13)
popptr1 (popptr1.o):
    memcpy.o                  common/memcpy.s(14)
    ltoa.o                    common/ltoa.s(9)
    vcprintf.o                conio/vcprintf.s(8)
ptr1 (zeropage.o):
    memcpy.o                  common/memcpy.s(15)
    vsnprintf.o               common/vsnprintf.s(11)
    strlower.o                common/strlower.s(13)
    popptr1.o                 runtime/popptr1.s(9)
    ltoa.o                    common/ltoa.s(11)
    _printf.o                 /mnt/c/cc65/asminc/zeropage.inc(12)
    zerobss.o                 common/zerobss.s(9)
    vcprintf.o                conio/vcprintf.s(10)
    sprintf.o                 common/sprintf.s(9)
    malloc.o                  common/malloc.s(108)
    free.o                    common/free.s(62)
    cputs.o                   conio/cputs.s(10)
    cprintf.o                 conio/cprintf.s(9)
    savetest.o                src/savetest.s(11)
ptr2 (zeropage.o):
    memcpy.o                  common/memcpy.s(15)
    strlower.o                common/strlower.s(13)
    strlen.o                  common/strlen.s(12)
    ltoa.o                    common/ltoa.s(11)
    _printf.o                 /mnt/c/cc65/asminc/zeropage.inc(12)
    vcprintf.o                conio/vcprintf.s(10)
    malloc.o                  common/malloc.s(108)
    free.o                    common/free.s(62)
    cputc.o                   atmos/cputc.s(14)
    clrscr.o                  atmos/clrscr.s(7)
ptr3 (zeropage.o):
    memcpy.o                  common/memcpy.s(15)
    ltoa.o                    common/ltoa.s(11)
    vcprintf.o                conio/vcprintf.s(10)
    malloc.o                  common/malloc.s(108)
    free.o                    common/free.s(62)
ptr4 (zeropage.o):
    free.o                    common/free.s(62)
push1 (push1.o):
    _printf.o                 common/_printf.s(11)
pusha0 (pushax.o):
    push1.o                   runtime/push1.s(8)
    savetest.o                src/savetest.s(591)
pushax (pushax.o):
    callmain.o                runtime/callmain.s(11)
    _printf.o                 common/_printf.s(11)
    vcprintf.o                conio/vcprintf.s(8)
    cprintf.o                 conio/cprintf.s(8)
    savetest.o                src/savetest.s(591)
    savetest.o                src/savetest.s(591)
    savetest.o                src/savetest.s(591)
pusheax (lpush.o):
    _printf.o                 common/_printf.s(11)
pushw0sp (pushwsp.o):
    vsprintf.o                common/vsprintf.s(8)
pushwysp (pushwsp.o):
    savetest.o                src/savetest.s(591)
regbank (zeropage.o):
    _printf.o                 /mnt/c/cc65/asminc/zeropage.inc(14)
return0 (return0.o):
    color.o                   atmos/color.s(10)
return1 (return1.o):
    color.o                   atmos/color.s(10)
rvs (revers.o):
    cputc.o                   atmos/cputc.s(12)
sp (zeropage.o):
    memcpy.o                  common/memcpy.s(15)
    ldaxsp.o                  runtime/ldaxsp.s(8)
    vsnprintf.o               common/vsnprintf.s(11)
    popptr1.o                 runtime/popptr1.s(9)
    lpush.o                   runtime/lpush.s(13)
    decsp6.o                  runtime/decsp6.s(8)
    _printf.o                 /mnt/c/cc65/asminc/zeropage.inc(11)
    _heap.o                   common/_heap.s(9)
    vcprintf.o                conio/vcprintf.s(10)
    subysp.o                  runtime/subysp.s(9)
    staxsp.o                  runtime/staxsp.s(8)
    sprintf.o                 common/sprintf.s(9)
    pushwsp.o                 runtime/pushwsp.s(8)
    pushax.o                  runtime/pushax.s(8)
    popa.o                    runtime/popa.s(8)
    incsp2.o                  runtime/incsp2.s(8)
    decsp4.o                  runtime/decsp4.s(8)
    crt0.o                    /mnt/c/cc65/asminc/zeropage.inc(11)
    cprintf.o                 conio/cprintf.s(9)
    addysp.o                  runtime/addysp.s(8)
    addeqsp.o                 runtime/addeqsp.s(8)
    savetest.o                src/savetest.s(10)
sreg (zeropage.o):
    lneg.o                    runtime/lneg.s(11)
    ltoa.o                    common/ltoa.s(11)
    lpush.o                   runtime/lpush.s(13)
    axlong.o                  runtime/axlong.s(9)
    _printf.o                 /mnt/c/cc65/asminc/zeropage.inc(11)
staxysp (staxsp.o):
    vsprintf.o                common/vsprintf.s(8)
    savetest.o                src/savetest.s(591)
subysp (subysp.o):
    savetest.o                src/savetest.s(591)
tmp1 (zeropage.o):
    ltoa.o                    common/ltoa.s(11)
    _printf.o                 /mnt/c/cc65/asminc/zeropage.inc(13)
    vcprintf.o                conio/vcprintf.s(10)
    cputs.o                   conio/cputs.s(10)
vsnprintf (vsnprintf.o):
    vsprintf.o                common/vsprintf.s(9)
zerobss (zerobss.o):
    crt0.o                    atmos/crt0.s(12)

