Modules list:
-------------
main.o:
    CODE              Offs=000000  Size=0046BB  Align=00001  Fill=0000
    RODATA            Offs=000000  Size=0004D7  Align=00001  Fill=0000
    BSS               Offs=000000  Size=000081  Align=00001  Fill=0000
    DATA              Offs=000000  Size=0003F9  Align=00001  Fill=0000
telestratjoy.o:
    CODE              Offs=0046BB  Size=000042  Align=00001  Fill=0000
/mnt/l/cc65/lib/telestrat.lib(_cursor.o):
    BSS               Offs=000081  Size=000001  Align=00001  Fill=0000
/mnt/l/cc65/lib/telestrat.lib(_directerrno.o):
    CODE              Offs=0046FD  Size=00000A  Align=00001  Fill=0000
/mnt/l/cc65/lib/telestrat.lib(_fdesc.o):
    CODE              Offs=004707  Size=00001D  Align=00001  Fill=0000
/mnt/l/cc65/lib/telestrat.lib(_file.o):
    DATA              Offs=0003F9  Size=00001E  Align=00001  Fill=0000
/mnt/l/cc65/lib/telestrat.lib(_fopen.o):
    CODE              Offs=004724  Size=00007B  Align=00001  Fill=0000
    BSS               Offs=000082  Size=000002  Align=00001  Fill=0000
/mnt/l/cc65/lib/telestrat.lib(_heap.o):
    DATA              Offs=000417  Size=00000A  Align=00001  Fill=0000
    ONCE              Offs=000000  Size=000010  Align=00001  Fill=0000
/mnt/l/cc65/lib/telestrat.lib(_hextab.o):
    RODATA            Offs=0004D7  Size=000010  Align=00001  Fill=0000
/mnt/l/cc65/lib/telestrat.lib(_longminstr.o):
    RODATA            Offs=0004E7  Size=00000C  Align=00001  Fill=0000
/mnt/l/cc65/lib/telestrat.lib(_mappederrno.o):
    CODE              Offs=00479F  Size=000010  Align=00001  Fill=0000
/mnt/l/cc65/lib/telestrat.lib(_oserror.o):
    BSS               Offs=000084  Size=000001  Align=00001  Fill=0000
/mnt/l/cc65/lib/telestrat.lib(_printf.o):
    CODE              Offs=0047AF  Size=0003A5  Align=00001  Fill=0000
    BSS               Offs=000085  Size=00002B  Align=00001  Fill=0000
    DATA              Offs=000421  Size=000003  Align=00001  Fill=0000
/mnt/l/cc65/lib/telestrat.lib(_seterrno.o):
    CODE              Offs=004B54  Size=000009  Align=00001  Fill=0000
/mnt/l/cc65/lib/telestrat.lib(add.o):
    CODE              Offs=004B5D  Size=00001C  Align=00001  Fill=0000
/mnt/l/cc65/lib/telestrat.lib(addysp.o):
    CODE              Offs=004B79  Size=00000E  Align=00001  Fill=0000
/mnt/l/cc65/lib/telestrat.lib(aslax2.o):
    CODE              Offs=004B87  Size=00000B  Align=00001  Fill=0000
/mnt/l/cc65/lib/telestrat.lib(aslax3.o):
    CODE              Offs=004B92  Size=00000E  Align=00001  Fill=0000
/mnt/l/cc65/lib/telestrat.lib(aslax4.o):
    CODE              Offs=004BA0  Size=000011  Align=00001  Fill=0000
/mnt/l/cc65/lib/telestrat.lib(axlong.o):
    CODE              Offs=004BB1  Size=00000D  Align=00001  Fill=0000
/mnt/l/cc65/lib/telestrat.lib(bgcolor.o):
    CODE              Offs=004BBE  Size=000008  Align=00001  Fill=0000
/mnt/l/cc65/lib/telestrat.lib(callmain.o):
    CODE              Offs=004BC6  Size=000017  Align=00001  Fill=0000
    DATA              Offs=000424  Size=000004  Align=00001  Fill=0000
/mnt/l/cc65/lib/telestrat.lib(cgetc.o):
    CODE              Offs=004BDD  Size=000013  Align=00001  Fill=0000
/mnt/l/cc65/lib/telestrat.lib(clock.o):
    CODE              Offs=004BF0  Size=00000D  Align=00001  Fill=0000
/mnt/l/cc65/lib/telestrat.lib(close.o):
    CODE              Offs=004BFD  Size=000003  Align=00001  Fill=0000
/mnt/l/cc65/lib/telestrat.lib(clrscr.o):
    CODE              Offs=004C00  Size=000036  Align=00001  Fill=0000
/mnt/l/cc65/lib/telestrat.lib(condes.o):
    CODE              Offs=004C36  Size=00000C  Align=00001  Fill=0000
    DATA              Offs=000428  Size=000025  Align=00001  Fill=0000
    ONCE              Offs=000010  Size=00000C  Align=00001  Fill=0000
/mnt/l/cc65/lib/telestrat.lib(cprintf.o):
    CODE              Offs=004C42  Size=00002A  Align=00001  Fill=0000
    BSS               Offs=0000B0  Size=000001  Align=00001  Fill=0000
/mnt/l/cc65/lib/telestrat.lib(cputc.o):
    CODE              Offs=004C6C  Size=00005F  Align=00001  Fill=0000
    BSS               Offs=0000B1  Size=000004  Align=00001  Fill=0000
/mnt/l/cc65/lib/telestrat.lib(cputs.o):
    CODE              Offs=004CCB  Size=000023  Align=00001  Fill=0000
/mnt/l/cc65/lib/telestrat.lib(crt0.o):
    STARTUP           Offs=000000  Size=00001F  Align=00001  Fill=0000
    ONCE              Offs=00001C  Size=000015  Align=00001  Fill=0000
    INIT              Offs=000000  Size=00001C  Align=00001  Fill=0000
/mnt/l/cc65/lib/telestrat.lib(ctype.o):
    RODATA            Offs=0004F3  Size=00008B  Align=00001  Fill=0000
/mnt/l/cc65/lib/telestrat.lib(ctypemask.o):
    CODE              Offs=004CEE  Size=00001E  Align=00001  Fill=0000
/mnt/l/cc65/lib/telestrat.lib(decsp1.o):
    CODE              Offs=004D0C  Size=000009  Align=00001  Fill=0000
/mnt/l/cc65/lib/telestrat.lib(decsp2.o):
    CODE              Offs=004D15  Size=00000D  Align=00001  Fill=0000
/mnt/l/cc65/lib/telestrat.lib(decsp3.o):
    CODE              Offs=004D22  Size=00000D  Align=00001  Fill=0000
/mnt/l/cc65/lib/telestrat.lib(decsp4.o):
    CODE              Offs=004D2F  Size=00000D  Align=00001  Fill=0000
/mnt/l/cc65/lib/telestrat.lib(decsp5.o):
    CODE              Offs=004D3C  Size=00000D  Align=00001  Fill=0000
/mnt/l/cc65/lib/telestrat.lib(decsp6.o):
    CODE              Offs=004D49  Size=00000D  Align=00001  Fill=0000
/mnt/l/cc65/lib/telestrat.lib(decsp7.o):
    CODE              Offs=004D56  Size=00000D  Align=00001  Fill=0000
/mnt/l/cc65/lib/telestrat.lib(decsp8.o):
    CODE              Offs=004D63  Size=00000D  Align=00001  Fill=0000
/mnt/l/cc65/lib/telestrat.lib(errno.o):
    BSS               Offs=0000B5  Size=000002  Align=00001  Fill=0000
/mnt/l/cc65/lib/telestrat.lib(fclose.o):
    CODE              Offs=004D70  Size=000022  Align=00001  Fill=0000
/mnt/l/cc65/lib/telestrat.lib(fopen.o):
    CODE              Offs=004D92  Size=000018  Align=00001  Fill=0000
/mnt/l/cc65/lib/telestrat.lib(fread.o):
    CODE              Offs=004DAA  Size=0000D3  Align=00001  Fill=0000
    BSS               Offs=0000B7  Size=000003  Align=00001  Fill=0000
/mnt/l/cc65/lib/telestrat.lib(free.o):
    CODE              Offs=004E7D  Size=0001D3  Align=00001  Fill=0000
/mnt/l/cc65/lib/telestrat.lib(fwrite.o):
    CODE              Offs=005050  Size=00007B  Align=00001  Fill=0000
    BSS               Offs=0000BA  Size=000002  Align=00001  Fill=0000
/mnt/l/cc65/lib/telestrat.lib(gotoxy.o):
    CODE              Offs=0050CB  Size=000028  Align=00001  Fill=0000
/mnt/l/cc65/lib/telestrat.lib(icmp.o):
    CODE              Offs=0050F3  Size=00002E  Align=00001  Fill=0000
/mnt/l/cc65/lib/telestrat.lib(incsp1.o):
    CODE              Offs=005121  Size=000007  Align=00001  Fill=0000
/mnt/l/cc65/lib/telestrat.lib(incsp2.o):
    CODE              Offs=005128  Size=000016  Align=00001  Fill=0000
/mnt/l/cc65/lib/telestrat.lib(incsp3.o):
    CODE              Offs=00513E  Size=000005  Align=00001  Fill=0000
/mnt/l/cc65/lib/telestrat.lib(incsp4.o):
    CODE              Offs=005143  Size=000005  Align=00001  Fill=0000
/mnt/l/cc65/lib/telestrat.lib(incsp5.o):
    CODE              Offs=005148  Size=000005  Align=00001  Fill=0000
/mnt/l/cc65/lib/telestrat.lib(incsp6.o):
    CODE              Offs=00514D  Size=000005  Align=00001  Fill=0000
/mnt/l/cc65/lib/telestrat.lib(incsp8.o):
    CODE              Offs=005152  Size=000005  Align=00001  Fill=0000
/mnt/l/cc65/lib/telestrat.lib(joy-kernel.o):
    CODE              Offs=005157  Size=00004D  Align=00001  Fill=0000
    RODATA            Offs=00057E  Size=000004  Align=00001  Fill=0000
    BSS               Offs=0000BC  Size=000002  Align=00001  Fill=0000
    DATA              Offs=00044D  Size=00000C  Align=00001  Fill=0000
/mnt/l/cc65/lib/telestrat.lib(joy_read.o):
/mnt/l/cc65/lib/telestrat.lib(kbhit.o):
    CODE              Offs=0051A4  Size=000009  Align=00001  Fill=0000
/mnt/l/cc65/lib/telestrat.lib(lcmp.o):
    CODE              Offs=0051AD  Size=00003B  Align=00001  Fill=0000
/mnt/l/cc65/lib/telestrat.lib(ldai.o):
    CODE              Offs=0051E8  Size=00000C  Align=00001  Fill=0000
/mnt/l/cc65/lib/telestrat.lib(ldaxsp.o):
    CODE              Offs=0051F4  Size=000009  Align=00001  Fill=0000
/mnt/l/cc65/lib/telestrat.lib(libref.o):
/mnt/l/cc65/lib/telestrat.lib(lneg.o):
    CODE              Offs=0051FD  Size=00001E  Align=00001  Fill=0000
/mnt/l/cc65/lib/telestrat.lib(lpush.o):
    CODE              Offs=00521B  Size=000021  Align=00001  Fill=0000
/mnt/l/cc65/lib/telestrat.lib(lsub.o):
    CODE              Offs=00523C  Size=000027  Align=00001  Fill=0000
/mnt/l/cc65/lib/telestrat.lib(ltoa.o):
    CODE              Offs=005263  Size=000095  Align=00001  Fill=0000
/mnt/l/cc65/lib/telestrat.lib(lult.o):
    CODE              Offs=0052F8  Size=000006  Align=00001  Fill=0000
/mnt/l/cc65/lib/telestrat.lib(makebool.o):
    CODE              Offs=0052FE  Size=00002C  Align=00001  Fill=0000
/mnt/l/cc65/lib/telestrat.lib(malloc.o):
    CODE              Offs=00532A  Size=00010E  Align=00001  Fill=0000
/mnt/l/cc65/lib/telestrat.lib(memcpy.o):
    CODE              Offs=005438  Size=00003C  Align=00001  Fill=0000
/mnt/l/cc65/lib/telestrat.lib(mod.o):
    CODE              Offs=005474  Size=000011  Align=00001  Fill=0000
/mnt/l/cc65/lib/telestrat.lib(mul.o):
    CODE              Offs=005485  Size=000045  Align=00001  Fill=0000
/mnt/l/cc65/lib/telestrat.lib(mul8.o):
    CODE              Offs=0054CA  Size=00003A  Align=00001  Fill=0000
/mnt/l/cc65/lib/telestrat.lib(mulax10.o):
    CODE              Offs=005504  Size=000019  Align=00001  Fill=0000
/mnt/l/cc65/lib/telestrat.lib(mulax6.o):
    CODE              Offs=00551D  Size=000016  Align=00001  Fill=0000
/mnt/l/cc65/lib/telestrat.lib(negabs.o):
    CODE              Offs=005533  Size=000012  Align=00001  Fill=0000
/mnt/l/cc65/lib/telestrat.lib(open.o):
    CODE              Offs=005545  Size=000016  Align=00001  Fill=0000
/mnt/l/cc65/lib/telestrat.lib(orixhdr.o):
    ORIXHDR           Offs=000000  Size=000014  Align=00001  Fill=0000
/mnt/l/cc65/lib/telestrat.lib(oserror.o):
    CODE              Offs=00555B  Size=000005  Align=00001  Fill=0000
/mnt/l/cc65/lib/telestrat.lib(popa.o):
    CODE              Offs=005560  Size=00000C  Align=00001  Fill=0000
/mnt/l/cc65/lib/telestrat.lib(popptr1.o):
    CODE              Offs=00556C  Size=00000E  Align=00001  Fill=0000
/mnt/l/cc65/lib/telestrat.lib(push1.o):
    CODE              Offs=00557A  Size=000005  Align=00001  Fill=0000
/mnt/l/cc65/lib/telestrat.lib(pusha.o):
    CODE              Offs=00557F  Size=000016  Align=00001  Fill=0000
/mnt/l/cc65/lib/telestrat.lib(pushax.o):
    CODE              Offs=005595  Size=00001A  Align=00001  Fill=0000
/mnt/l/cc65/lib/telestrat.lib(pushwsp.o):
    CODE              Offs=0055AF  Size=00001C  Align=00001  Fill=0000
/mnt/l/cc65/lib/telestrat.lib(rand.o):
    CODE              Offs=0055CB  Size=000034  Align=00001  Fill=0000
    DATA              Offs=000459  Size=000004  Align=00001  Fill=0000
/mnt/l/cc65/lib/telestrat.lib(read.o):
    CODE              Offs=0055FF  Size=000021  Align=00001  Fill=0000
/mnt/l/cc65/lib/telestrat.lib(remove.o):
    CODE              Offs=005620  Size=000006  Align=00001  Fill=0000
/mnt/l/cc65/lib/telestrat.lib(return0.o):
    CODE              Offs=005626  Size=000004  Align=00001  Fill=0000
/mnt/l/cc65/lib/telestrat.lib(shelp.o):
    CODE              Offs=00562A  Size=000020  Align=00001  Fill=0000
/mnt/l/cc65/lib/telestrat.lib(shrax1.o):
    CODE              Offs=00564A  Size=000008  Align=00001  Fill=0000
/mnt/l/cc65/lib/telestrat.lib(sprintf.o):
    CODE              Offs=005652  Size=00002B  Align=00001  Fill=0000
    BSS               Offs=0000BE  Size=000001  Align=00001  Fill=0000
/mnt/l/cc65/lib/telestrat.lib(staspidx.o):
    CODE              Offs=00567D  Size=000016  Align=00001  Fill=0000
/mnt/l/cc65/lib/telestrat.lib(staxsp.o):
    CODE              Offs=005693  Size=00000B  Align=00001  Fill=0000
/mnt/l/cc65/lib/telestrat.lib(strcat.o):
    CODE              Offs=00569E  Size=000031  Align=00001  Fill=0000
/mnt/l/cc65/lib/telestrat.lib(strchr.o):
    CODE              Offs=0056CF  Size=000027  Align=00001  Fill=0000
/mnt/l/cc65/lib/telestrat.lib(strlen.o):
    CODE              Offs=0056F6  Size=000016  Align=00001  Fill=0000
/mnt/l/cc65/lib/telestrat.lib(strlower.o):
    CODE              Offs=00570C  Size=000027  Align=00001  Fill=0000
/mnt/l/cc65/lib/telestrat.lib(sub.o):
    CODE              Offs=005733  Size=000015  Align=00001  Fill=0000
/mnt/l/cc65/lib/telestrat.lib(subysp.o):
    CODE              Offs=005748  Size=00000D  Align=00001  Fill=0000
/mnt/l/cc65/lib/telestrat.lib(sysremove.o):
    CODE              Offs=005755  Size=000003  Align=00001  Fill=0000
/mnt/l/cc65/lib/telestrat.lib(textcolor.o):
    CODE              Offs=005758  Size=00000B  Align=00001  Fill=0000
/mnt/l/cc65/lib/telestrat.lib(udiv.o):
    CODE              Offs=005763  Size=00004F  Align=00001  Fill=0000
/mnt/l/cc65/lib/telestrat.lib(umod.o):
    CODE              Offs=0057B2  Size=000011  Align=00001  Fill=0000
/mnt/l/cc65/lib/telestrat.lib(vcprintf.o):
    CODE              Offs=0057C3  Size=000078  Align=00001  Fill=0000
    DATA              Offs=00045D  Size=000008  Align=00001  Fill=0000
/mnt/l/cc65/lib/telestrat.lib(vsnprintf.o):
    CODE              Offs=00583B  Size=0000DA  Align=00001  Fill=0000
    DATA              Offs=000465  Size=000008  Align=00001  Fill=0000
/mnt/l/cc65/lib/telestrat.lib(vsprintf.o):
    CODE              Offs=005915  Size=000012  Align=00001  Fill=0000
/mnt/l/cc65/lib/telestrat.lib(write.o):
    CODE              Offs=005927  Size=00005F  Align=00001  Fill=0000
/mnt/l/cc65/lib/telestrat.lib(zerobss.o):
    CODE              Offs=005986  Size=000023  Align=00001  Fill=0000
/mnt/l/cc65/lib/telestrat.lib(zeropage.o):
    ZEROPAGE          Offs=000000  Size=00001A  Align=00001  Fill=0000


Segment list:
-------------
Name                   Start     End    Size  Align
----------------------------------------------------
ORIXHDR               000000  000013  000014  00001
ZEROPAGE              0000B0  0000C9  00001A  00001
STARTUP               000800  00081E  00001F  00001
CODE                  00081F  0061C7  0059A9  00001
RODATA                0061C8  006749  000582  00001
DATA                  00674A  006BB6  00046D  00001
INIT                  006BB7  006BD2  00001C  00001
BSS                   006BD3  006C91  0000BF  00001
ONCE                  006BD3  006C05  000033  00001


Exports list by name:
---------------------
BGCOLOR                   006C86 RLA    CHARCOLOR                 006C84 RLA    
OLD_BGCOLOR               006C87 RLA    OLD_CHARCOLOR             006C85 RLA    
__BSS_RUN__               006BD3 RLA    __BSS_SIZE__              0000BF REA    
__CONSTRUCTOR_COUNT__     000001 REA    __CONSTRUCTOR_TABLE__     006C04 RLA    
__DESTRUCTOR_COUNT__      000000 REA    __DESTRUCTOR_TABLE__      00674A RLA    
__MAIN_LAST__             006C06 RLA    __MAIN_SIZE__             007E00 REA    
__MAIN_START__            000800 RLA    __ONCE_RUN__              006BD3 RLA    
__ORIXHDR__               000001 REA    __RAMEND__                008600 REA    
__STACKSIZE__             000800 REA    __STARTUP__               000001 REA    
__ZP_START__              0000B0 RLA    __ctype                   0066BB RLA    
__ctypeidx                0066C6 RLA    __directerrno             004F1C RLA    
__errno                   006C88 RLA    __fdesc                   004F26 RLA    
__filetab                 006B43 RLA    __fopen                   004F43 RLA    
__heapend                 006B65 RLA    __heapfirst               006B67 RLA    
__heaplast                006B69 RLA    __heapptr                 006B63 RLA    
__hextab                  00669F RLA    __longminstr              0066AF RLA    
__mappederrno             004FBE RLA    __oserror                 006C57 RLA    
__osmaperrno              005D7A RLA    __printf                  0050C1 RLA    
__seterrno                005373 RLA    __sysremove               005F74 RLA    
_bgcolor                  0053DD RLA    _cgetc                    0053FC RLA    
_clock                    00540F RLA    _close                    00541C RLA    
_clrscr                   00541F RLA    _cprintf                  005461 RLA    
_cputc                    005499 RLA    _cputcxy                  00548B RLA    
_cputs                    0054F4 RLA    _cputsxy                  0054EA RLA    
_exit                     00080D RLA    _fclose                   00558F RLA    
_fopen                    0055B1 RLA    _fread                    0055C9 RLA    
_free                     00569C RLA    _fwrite                   00586F RLA    
_gotoxy                   0058ED RLA    _joy_install              005976 RLA    
_joy_read                 006BA0 REA    _joy_uninstall            0059B6 RLA    
_kbhit                    0059C3 RLA    _ltoa                     005A9A RLA    
_main                     004C4F RLA    _malloc                   005B49 RLA    
_memcpy                   005C57 RLA    _open                     005D64 RLA    
_rand                     005DF6 RLA    _read                     005E1E RLA    
_remove                   005E3F RLA    _sprintf                  005E71 RLA    
_srand                    005DEA RLA    _strcat                   005EBD RLA    
_strchr                   005EEE RLA    _strlen                   005F15 RLA    
_strlower                 005F2B RLA    _telestratjoy             004EDA RLA    
_textcolor                005F77 RLA    _ultoa                    005ADB RLA    
_vcprintf                 00602A RLA    _vsprintf                 006134 RLA    
_write                    006146 RLA    addysp                    005399 RLA    
addysp1                   005398 RLA    aslax2                    0053A6 RLA    
aslax3                    0053B1 RLA    aslax4                    0053BF RLA    
axlong                    0053D0 RLA    axulong                   0053D6 RLA    
booleq                    005B23 RLA    boolugt                   005B42 RLA    
boolult                   005B3C RLA    callmain                  0053E5 RLA    
ctypemaskdirect           005511 RLA    cursor                    006C54 RLA    
decsp1                    00552B RLA    decsp2                    005534 RLA    
decsp3                    005541 RLA    decsp4                    00554E RLA    
decsp5                    00555B RLA    decsp6                    005568 RLA    
decsp7                    005575 RLA    decsp8                    005582 RLA    
donelib                   005455 RLA    gotoxy                    0058EA RLA    
incsp1                    005940 RLA    incsp2                    00594F RLA    
incsp3                    00595D RLA    incsp4                    005962 RLA    
incsp5                    005967 RLA    incsp6                    00596C RLA    
incsp8                    005971 RLA    initheap                  006BD3  LAI   
initlib                   006BE3 RLA    joy_libref                00080D RLA    
joy_read                  006BA0 RLA    ldaidx                    005A07 RLA    
ldax0sp                   005A13 RLA    ldaxysp                   005A15 RLA    
mul8x16                   005CEB RLA    mul8x16a                  005CF5 RLA    
mulax10                   005D23 RLA    mulax6                    005D3C RLA    
negax                     005D56 RLA    negeax                    005A1C RLA    
popa                      005D7F RLA    popax                     005947 RLA    
popptr1                   005D8B RLA    popsargsudiv16            005E49 RLA    
ptr1                      0000B8 RLZ    ptr2                      0000BA RLZ    
ptr3                      0000BC RLZ    ptr4                      0000BE RLZ    
push1                     005D99 RLA    pusha                     005DA2 RLA    
pusha0                    005DB6 RLA    pushax                    005DB8 RLA    
pusheax                   005A43 RLA    pushw0sp                  005DCE RLA    
pushwysp                  005DD0 RLA    regbank                   0000C4 RLZ    
return0                   005E45 RLA    shlax2                    0053A6 RLA    
shlax3                    0053B1 RLA    shlax4                    0053BF RLA    
shrax1                    005E69 RLA    sp                        0000B0 RLZ    
sreg                      0000B2 RLZ    staspidx                  005E9C RLA    
stax0sp                   005EB2 RLA    staxysp                   005EB4 RLA    
subysp                    005F67 RLA    tmp1                      0000C0 RLZ    
tmp2                      0000C1 RLZ    tmp3                      0000C2 RLZ    
tosaddax                  00537E RLA    tosicmp                   005914 RLA    
toslcmp                   0059CC RLA    tosmoda0                  005C93 RLA    
tosmula0                  005CE9 RLA    tossub0ax                 005A5B RLA    
tossuba0                  005F52 RLA    tossubax                  005F54 RLA    
tosudiva0                 005F82 RLA    tosudivax                 005F84 RLA    
tosulteax                 005B17 RLA    tosumoda0                 005FD1 RLA    
tosumula0                 005CE9 RLA    tosumulax                 005CA4 RLA    
udiv16                    005F93 RLA    update_adscr              0058F6 RLA    
vsnprintf                 00605D RLA    zerobss                   0061A5 RLA    



Exports list by value:
----------------------
__DESTRUCTOR_COUNT__      000000 REA    __CONSTRUCTOR_COUNT__     000001 REA    
__ORIXHDR__               000001 REA    __STARTUP__               000001 REA    
__ZP_START__              0000B0 RLA    sp                        0000B0 RLZ    
sreg                      0000B2 RLZ    ptr1                      0000B8 RLZ    
ptr2                      0000BA RLZ    ptr3                      0000BC RLZ    
ptr4                      0000BE RLZ    __BSS_SIZE__              0000BF REA    
tmp1                      0000C0 RLZ    tmp2                      0000C1 RLZ    
tmp3                      0000C2 RLZ    regbank                   0000C4 RLZ    
__MAIN_START__            000800 RLA    __STACKSIZE__             000800 REA    
_exit                     00080D RLA    joy_libref                00080D RLA    
_main                     004C4F RLA    _telestratjoy             004EDA RLA    
__directerrno             004F1C RLA    __fdesc                   004F26 RLA    
__fopen                   004F43 RLA    __mappederrno             004FBE RLA    
__printf                  0050C1 RLA    __seterrno                005373 RLA    
tosaddax                  00537E RLA    addysp1                   005398 RLA    
addysp                    005399 RLA    aslax2                    0053A6 RLA    
shlax2                    0053A6 RLA    aslax3                    0053B1 RLA    
shlax3                    0053B1 RLA    aslax4                    0053BF RLA    
shlax4                    0053BF RLA    axlong                    0053D0 RLA    
axulong                   0053D6 RLA    _bgcolor                  0053DD RLA    
callmain                  0053E5 RLA    _cgetc                    0053FC RLA    
_clock                    00540F RLA    _close                    00541C RLA    
_clrscr                   00541F RLA    donelib                   005455 RLA    
_cprintf                  005461 RLA    _cputcxy                  00548B RLA    
_cputc                    005499 RLA    _cputsxy                  0054EA RLA    
_cputs                    0054F4 RLA    ctypemaskdirect           005511 RLA    
decsp1                    00552B RLA    decsp2                    005534 RLA    
decsp3                    005541 RLA    decsp4                    00554E RLA    
decsp5                    00555B RLA    decsp6                    005568 RLA    
decsp7                    005575 RLA    decsp8                    005582 RLA    
_fclose                   00558F RLA    _fopen                    0055B1 RLA    
_fread                    0055C9 RLA    _free                     00569C RLA    
_fwrite                   00586F RLA    gotoxy                    0058EA RLA    
_gotoxy                   0058ED RLA    update_adscr              0058F6 RLA    
tosicmp                   005914 RLA    incsp1                    005940 RLA    
popax                     005947 RLA    incsp2                    00594F RLA    
incsp3                    00595D RLA    incsp4                    005962 RLA    
incsp5                    005967 RLA    incsp6                    00596C RLA    
incsp8                    005971 RLA    _joy_install              005976 RLA    
_joy_uninstall            0059B6 RLA    _kbhit                    0059C3 RLA    
toslcmp                   0059CC RLA    ldaidx                    005A07 RLA    
ldax0sp                   005A13 RLA    ldaxysp                   005A15 RLA    
negeax                    005A1C RLA    pusheax                   005A43 RLA    
tossub0ax                 005A5B RLA    _ltoa                     005A9A RLA    
_ultoa                    005ADB RLA    tosulteax                 005B17 RLA    
booleq                    005B23 RLA    boolult                   005B3C RLA    
boolugt                   005B42 RLA    _malloc                   005B49 RLA    
_memcpy                   005C57 RLA    tosmoda0                  005C93 RLA    
tosumulax                 005CA4 RLA    tosmula0                  005CE9 RLA    
tosumula0                 005CE9 RLA    mul8x16                   005CEB RLA    
mul8x16a                  005CF5 RLA    mulax10                   005D23 RLA    
mulax6                    005D3C RLA    negax                     005D56 RLA    
_open                     005D64 RLA    __osmaperrno              005D7A RLA    
popa                      005D7F RLA    popptr1                   005D8B RLA    
push1                     005D99 RLA    pusha                     005DA2 RLA    
pusha0                    005DB6 RLA    pushax                    005DB8 RLA    
pushw0sp                  005DCE RLA    pushwysp                  005DD0 RLA    
_srand                    005DEA RLA    _rand                     005DF6 RLA    
_read                     005E1E RLA    _remove                   005E3F RLA    
return0                   005E45 RLA    popsargsudiv16            005E49 RLA    
shrax1                    005E69 RLA    _sprintf                  005E71 RLA    
staspidx                  005E9C RLA    stax0sp                   005EB2 RLA    
staxysp                   005EB4 RLA    _strcat                   005EBD RLA    
_strchr                   005EEE RLA    _strlen                   005F15 RLA    
_strlower                 005F2B RLA    tossuba0                  005F52 RLA    
tossubax                  005F54 RLA    subysp                    005F67 RLA    
__sysremove               005F74 RLA    _textcolor                005F77 RLA    
tosudiva0                 005F82 RLA    tosudivax                 005F84 RLA    
udiv16                    005F93 RLA    tosumoda0                 005FD1 RLA    
_vcprintf                 00602A RLA    vsnprintf                 00605D RLA    
_vsprintf                 006134 RLA    _write                    006146 RLA    
zerobss                   0061A5 RLA    __hextab                  00669F RLA    
__longminstr              0066AF RLA    __ctype                   0066BB RLA    
__ctypeidx                0066C6 RLA    __DESTRUCTOR_TABLE__      00674A RLA    
__filetab                 006B43 RLA    __heapptr                 006B63 RLA    
__heapend                 006B65 RLA    __heapfirst               006B67 RLA    
__heaplast                006B69 RLA    _joy_read                 006BA0 REA    
joy_read                  006BA0 RLA    __BSS_RUN__               006BD3 RLA    
__ONCE_RUN__              006BD3 RLA    initheap                  006BD3  LAI   
initlib                   006BE3 RLA    __CONSTRUCTOR_TABLE__     006C04 RLA    
__MAIN_LAST__             006C06 RLA    cursor                    006C54 RLA    
__oserror                 006C57 RLA    CHARCOLOR                 006C84 RLA    
OLD_CHARCOLOR             006C85 RLA    BGCOLOR                   006C86 RLA    
OLD_BGCOLOR               006C87 RLA    __errno                   006C88 RLA    
__MAIN_SIZE__             007E00 REA    __RAMEND__                008600 REA    



Imports list:
-------------
BGCOLOR (cputc.o):
    clrscr.o                  telestrat/clrscr.s(6)
    bgcolor.o                 telestrat/bgcolor.s(5)
CHARCOLOR (cputc.o):
    textcolor.o               telestrat/textcolor.s(5)
    clrscr.o                  telestrat/clrscr.s(6)
OLD_BGCOLOR (cputc.o):
    clrscr.o                  telestrat/clrscr.s(6)
OLD_CHARCOLOR (cputc.o):
    textcolor.o               telestrat/textcolor.s(5)
    clrscr.o                  telestrat/clrscr.s(6)
__BSS_RUN__ ([linker generated]):
    _heap.o                   common/_heap.s(8)
    zerobss.o                 common/zerobss.s(8)
__BSS_SIZE__ ([linker generated]):
    _heap.o                   common/_heap.s(8)
    zerobss.o                 common/zerobss.s(8)
__CONSTRUCTOR_COUNT__ ([linker generated]):
    condes.o                  runtime/condes.s(18)
__CONSTRUCTOR_TABLE__ ([linker generated]):
    condes.o                  runtime/condes.s(18)
__DESTRUCTOR_COUNT__ ([linker generated]):
    condes.o                  runtime/condes.s(19)
__DESTRUCTOR_TABLE__ ([linker generated]):
    condes.o                  runtime/condes.s(19)
__MAIN_LAST__ ([linker generated]):
    orixhdr.o                 telestrat/orixhdr.s(12)
__MAIN_SIZE__ ([linker generated]):
    crt0.o                    telestrat/crt0.s(12)
__MAIN_START__ ([linker generated]):
    orixhdr.o                 telestrat/orixhdr.s(12)
    crt0.o                    telestrat/crt0.s(12)
    [linker generated]        /mnt/l/cc65/cfg/telestrat.cfg(10)
__ONCE_RUN__ ([linker generated]):
    [linker generated]        /mnt/l/cc65/cfg/telestrat.cfg(11)
    [linker generated]        /mnt/l/cc65/cfg/telestrat.cfg(11)
__ORIXHDR__ (orixhdr.o):
    [linker generated]        /mnt/l/cc65/cfg/telestrat.cfg(2)
__RAMEND__ ([linker generated]):
    [linker generated]        /mnt/l/cc65/cfg/telestrat.cfg(11)
    [linker generated]        /mnt/l/cc65/cfg/telestrat.cfg(10)
__STACKSIZE__ ([linker generated]):
    _heap.o                   common/_heap.s(8)
    [linker generated]        /mnt/l/cc65/cfg/telestrat.cfg(11)
__STARTUP__ (crt0.o):
    main.o                    src/main.s(13)
__ZP_START__ ([linker generated]):
    telestratjoy.o            include/telestratjoy.s(93)
__ctype (ctype.o):
    ctypemask.o               common/ctypemask.s(23)
__ctypeidx (ctype.o):
    ctypemask.o               common/ctypemask.s(24)
__directerrno (_directerrno.o):
    vsnprintf.o               D:/Onedrive/oric/projets/github/jedeoric/cc65_clock_new/cc65/asminc/errno.inc(10)
__errno (errno.o):
    _seterrno.o               D:/Onedrive/oric/projets/github/jedeoric/cc65_clock_new/cc65/asminc/errno.inc(7)
__fdesc (_fdesc.o):
    fopen.o                   common/fopen.s(10)
__filetab (_file.o):
    _fdesc.o                  D:/Onedrive/oric/projets/github/jedeoric/cc65_clock_new/cc65/asminc/_file.inc(25)
__fopen (_fopen.o):
    fopen.o                   common/fopen.s(10)
__heapend (_heap.o):
    malloc.o                  D:/Onedrive/oric/projets/github/jedeoric/cc65_clock_new/cc65/asminc/_heap.inc(33)
__heapfirst (_heap.o):
    malloc.o                  D:/Onedrive/oric/projets/github/jedeoric/cc65_clock_new/cc65/asminc/_heap.inc(34)
    free.o                    D:/Onedrive/oric/projets/github/jedeoric/cc65_clock_new/cc65/asminc/_heap.inc(34)
__heaplast (_heap.o):
    malloc.o                  D:/Onedrive/oric/projets/github/jedeoric/cc65_clock_new/cc65/asminc/_heap.inc(35)
    free.o                    D:/Onedrive/oric/projets/github/jedeoric/cc65_clock_new/cc65/asminc/_heap.inc(35)
__heapptr (_heap.o):
    malloc.o                  D:/Onedrive/oric/projets/github/jedeoric/cc65_clock_new/cc65/asminc/_heap.inc(32)
    free.o                    D:/Onedrive/oric/projets/github/jedeoric/cc65_clock_new/cc65/asminc/_heap.inc(32)
__hextab (_hextab.o):
    ltoa.o                    common/ltoa.s(10)
__longminstr (_longminstr.o):
    ltoa.o                    common/ltoa.s(10)
__mappederrno (_mappederrno.o):
    remove.o                  common/remove.s(10)
__oserror (_oserror.o):
    _directerrno.o            D:/Onedrive/oric/projets/github/jedeoric/cc65_clock_new/cc65/asminc/errno.inc(7)
    _mappederrno.o            D:/Onedrive/oric/projets/github/jedeoric/cc65_clock_new/cc65/asminc/errno.inc(7)
__osmaperrno (oserror.o):
    _mappederrno.o            D:/Onedrive/oric/projets/github/jedeoric/cc65_clock_new/cc65/asminc/errno.inc(8)
__printf (_printf.o):
    vsnprintf.o               common/vsnprintf.s(10)
    vcprintf.o                conio/vcprintf.s(9)
__seterrno (_seterrno.o):
    _directerrno.o            D:/Onedrive/oric/projets/github/jedeoric/cc65_clock_new/cc65/asminc/errno.inc(9)
    _mappederrno.o            D:/Onedrive/oric/projets/github/jedeoric/cc65_clock_new/cc65/asminc/errno.inc(9)
    _fopen.o                  D:/Onedrive/oric/projets/github/jedeoric/cc65_clock_new/cc65/asminc/errno.inc(9)
    fwrite.o                  D:/Onedrive/oric/projets/github/jedeoric/cc65_clock_new/cc65/asminc/errno.inc(9)
    fread.o                   D:/Onedrive/oric/projets/github/jedeoric/cc65_clock_new/cc65/asminc/errno.inc(9)
    fopen.o                   D:/Onedrive/oric/projets/github/jedeoric/cc65_clock_new/cc65/asminc/errno.inc(9)
    fclose.o                  D:/Onedrive/oric/projets/github/jedeoric/cc65_clock_new/cc65/asminc/errno.inc(9)
__sysremove (sysremove.o):
    remove.o                  common/remove.s(9)
_bgcolor (bgcolor.o):
    main.o                    src/main.s(34)
_cgetc (cgetc.o):
    main.o                    src/main.s(32)
_clock (clock.o):
    main.o                    src/main.s(40)
_close (close.o):
    fclose.o                  common/fclose.s(10)
_clrscr (clrscr.o):
    main.o                    src/main.s(24)
_cprintf (cprintf.o):
    main.o                    src/main.s(31)
_cputc (cputc.o):
    vcprintf.o                conio/vcprintf.s(9)
    cputs.o                   conio/cputs.s(9)
    main.o                    src/main.s(27)
_cputcxy (cputc.o):
    main.o                    src/main.s(28)
_cputs (cputs.o):
    main.o                    src/main.s(29)
_cputsxy (cputs.o):
    main.o                    src/main.s(30)
_exit (crt0.o):
    libref.o                  telestrat/libref.s(6)
_fclose (fclose.o):
    main.o                    src/main.s(18)
_fopen (fopen.o):
    main.o                    src/main.s(19)
_fread (fread.o):
    main.o                    src/main.s(20)
_free (free.o):
    main.o                    src/main.s(15)
_fwrite (fwrite.o):
    main.o                    src/main.s(21)
_gotoxy (gotoxy.o):
    main.o                    src/main.s(26)
_joy_install (joy-kernel.o):
    main.o                    src/main.s(41)
_joy_read (joy_read.o):
    main.o                    src/main.s(43)
_joy_uninstall (joy-kernel.o):
    main.o                    src/main.s(42)
_kbhit (kbhit.o):
    main.o                    src/main.s(25)
_ltoa (ltoa.o):
    _printf.o                 common/_printf.s(12)
_main (main.o):
    callmain.o                runtime/callmain.s(11)
_malloc (malloc.o):
    main.o                    src/main.s(14)
_memcpy (memcpy.o):
    vsnprintf.o               common/vsnprintf.s(10)
    main.o                    src/main.s(39)
_open (open.o):
    _fopen.o                  common/_fopen.s(10)
_rand (rand.o):
    main.o                    src/main.s(16)
_read (read.o):
    fread.o                   common/fread.s(10)
_remove (remove.o):
    main.o                    src/main.s(22)
_sprintf (sprintf.o):
    main.o                    src/main.s(23)
_srand (rand.o):
    main.o                    src/main.s(17)
_strcat (strcat.o):
    main.o                    src/main.s(35)
_strchr (strchr.o):
    main.o                    src/main.s(36)
_strlen (strlen.o):
    _printf.o                 common/_printf.s(13)
    main.o                    src/main.s(38)
_strlower (strlower.o):
    _printf.o                 common/_printf.s(13)
_telestratjoy (telestratjoy.o):
    main.o                    src/main.s(44)
_textcolor (textcolor.o):
    main.o                    src/main.s(33)
_ultoa (ltoa.o):
    _printf.o                 common/_printf.s(12)
_vcprintf (vcprintf.o):
    cprintf.o                 conio/cprintf.s(8)
_vsprintf (vsprintf.o):
    sprintf.o                 common/sprintf.s(8)
_write (write.o):
    fwrite.o                  common/fwrite.s(10)
addysp (addysp.o):
    open.o                    telestrat/open.s(3)
    sprintf.o                 common/sprintf.s(8)
    incsp8.o                  runtime/incsp8.s(8)
    incsp6.o                  runtime/incsp6.s(8)
    incsp5.o                  runtime/incsp5.s(8)
    incsp4.o                  runtime/incsp4.s(8)
    incsp3.o                  runtime/incsp3.s(8)
    fwrite.o                  common/fwrite.s(11)
    cprintf.o                 conio/cprintf.s(8)
    main.o                    src/main.s(10352)
    main.o                    src/main.s(10352)
    main.o                    src/main.s(10352)
    main.o                    src/main.s(10352)
    main.o                    src/main.s(10352)
    main.o                    src/main.s(10352)
    main.o                    src/main.s(10352)
    main.o                    src/main.s(10352)
    main.o                    src/main.s(10352)
    main.o                    src/main.s(10352)
addysp1 (addysp.o):
    sub.o                     runtime/sub.s(8)
    lsub.o                    runtime/lsub.s(11)
aslax2 (aslax2.o):
    main.o                    src/main.s(10352)
    main.o                    src/main.s(10352)
    main.o                    src/main.s(10352)
    main.o                    src/main.s(10352)
    main.o                    src/main.s(10352)
    main.o                    src/main.s(10352)
    main.o                    src/main.s(10352)
    main.o                    src/main.s(10352)
    main.o                    src/main.s(10352)
    main.o                    src/main.s(10352)
    main.o                    src/main.s(10352)
aslax3 (aslax3.o):
    main.o                    src/main.s(10352)
    main.o                    src/main.s(10352)
    main.o                    src/main.s(10352)
    main.o                    src/main.s(10352)
    main.o                    src/main.s(10352)
    main.o                    src/main.s(10352)
aslax4 (aslax4.o):
    main.o                    src/main.s(10352)
    main.o                    src/main.s(10352)
    main.o                    src/main.s(10352)
    main.o                    src/main.s(10352)
axlong (axlong.o):
    _printf.o                 common/_printf.s(11)
axulong (axlong.o):
    _printf.o                 common/_printf.s(11)
booleq (makebool.o):
    main.o                    src/main.s(10352)
boolugt (makebool.o):
    main.o                    src/main.s(10352)
boolult (makebool.o):
    lult.o                    runtime/lult.s(8)
callmain (callmain.o):
    crt0.o                    telestrat/crt0.s(11)
ctypemaskdirect (ctypemask.o):
    strlower.o                common/strlower.s(14)
cursor (_cursor.o):
    cgetc.o                   telestrat/cgetc.s(6)
decsp1 (decsp1.o):
    main.o                    src/main.s(10352)
    main.o                    src/main.s(10352)
    main.o                    src/main.s(10352)
    main.o                    src/main.s(10352)
    main.o                    src/main.s(10352)
decsp2 (decsp2.o):
    main.o                    src/main.s(10352)
    main.o                    src/main.s(10352)
    main.o                    src/main.s(10352)
    main.o                    src/main.s(10352)
    main.o                    src/main.s(10352)
    main.o                    src/main.s(10352)
    main.o                    src/main.s(10352)
    main.o                    src/main.s(10352)
    main.o                    src/main.s(10352)
    main.o                    src/main.s(10352)
    main.o                    src/main.s(10352)
    main.o                    src/main.s(10352)
    main.o                    src/main.s(10352)
    main.o                    src/main.s(10352)
    main.o                    src/main.s(10352)
decsp3 (decsp3.o):
    main.o                    src/main.s(10352)
    main.o                    src/main.s(10352)
    main.o                    src/main.s(10352)
    main.o                    src/main.s(10352)
    main.o                    src/main.s(10352)
    main.o                    src/main.s(10352)
    main.o                    src/main.s(10352)
decsp4 (decsp4.o):
    sprintf.o                 common/sprintf.s(8)
    lpush.o                   runtime/lpush.s(12)
    main.o                    src/main.s(10352)
    main.o                    src/main.s(10352)
    main.o                    src/main.s(10352)
    main.o                    src/main.s(10352)
    main.o                    src/main.s(10352)
    main.o                    src/main.s(10352)
    main.o                    src/main.s(10352)
    main.o                    src/main.s(10352)
    main.o                    src/main.s(10352)
    main.o                    src/main.s(10352)
decsp5 (decsp5.o):
    main.o                    src/main.s(10352)
    main.o                    src/main.s(10352)
    main.o                    src/main.s(10352)
    main.o                    src/main.s(10352)
    main.o                    src/main.s(10352)
    main.o                    src/main.s(10352)
decsp6 (decsp6.o):
    _printf.o                 common/_printf.s(11)
    main.o                    src/main.s(10352)
    main.o                    src/main.s(10352)
    main.o                    src/main.s(10352)
    main.o                    src/main.s(10352)
    main.o                    src/main.s(10352)
decsp7 (decsp7.o):
    main.o                    src/main.s(10352)
    main.o                    src/main.s(10352)
decsp8 (decsp8.o):
    main.o                    src/main.s(10352)
    main.o                    src/main.s(10352)
donelib (condes.o):
    crt0.o                    telestrat/crt0.s(10)
gotoxy (gotoxy.o):
    cputs.o                   conio/cputs.s(9)
incsp1 (incsp1.o):
    main.o                    src/main.s(10352)
    main.o                    src/main.s(10352)
    main.o                    src/main.s(10352)
    main.o                    src/main.s(10352)
incsp2 (incsp2.o):
    vsnprintf.o               common/vsnprintf.s(9)
    staspidx.o                runtime/staspidx.s(8)
    popptr1.o                 runtime/popptr1.s(8)
    main.o                    src/main.s(10352)
    main.o                    src/main.s(10352)
    main.o                    src/main.s(10352)
    main.o                    src/main.s(10352)
    main.o                    src/main.s(10352)
    main.o                    src/main.s(10352)
incsp3 (incsp3.o):
    main.o                    src/main.s(10352)
incsp4 (incsp4.o):
    lcmp.o                    runtime/lcmp.s(9)
    _fopen.o                  common/_fopen.s(11)
    fread.o                   common/fread.s(12)
    main.o                    src/main.s(10352)
    main.o                    src/main.s(10352)
    main.o                    src/main.s(10352)
incsp5 (incsp5.o):
    main.o                    src/main.s(10352)
incsp6 (incsp6.o):
    vsnprintf.o               common/vsnprintf.s(9)
    fwrite.o                  common/fwrite.s(11)
    fread.o                   common/fread.s(12)
    main.o                    src/main.s(10352)
    main.o                    src/main.s(10352)
    main.o                    src/main.s(10352)
    main.o                    src/main.s(10352)
incsp8 (incsp8.o):
    main.o                    src/main.s(10352)
initlib (condes.o):
    crt0.o                    telestrat/crt0.s(10)
joy_libref (libref.o):
    joy-kernel.o              joystick/joy-kernel.s(7)
joy_read (joy-kernel.o):
    joy_read.o                D:/Onedrive/oric/projets/github/jedeoric/cc65_clock_new/cc65/asminc/joy-kernel.inc(71)
ldaidx (ldai.o):
    main.o                    src/main.s(10352)
ldax0sp (ldaxsp.o):
    fread.o                   common/fread.s(13)
ldaxysp (ldaxsp.o):
    vsnprintf.o               common/vsnprintf.s(9)
    fwrite.o                  common/fwrite.s(11)
    fread.o                   common/fread.s(13)
mul8x16 (mul8.o):
    mul.o                     runtime/mul.s(8)
mul8x16a (mul8.o):
    mul.o                     runtime/mul.s(8)
mulax10 (mulax10.o):
    main.o                    src/main.s(10352)
    main.o                    src/main.s(10352)
mulax6 (mulax6.o):
    main.o                    src/main.s(10352)
negax (negabs.o):
    shelp.o                   runtime/shelp.s(11)
    mod.o                     runtime/mod.s(11)
negeax (lneg.o):
    ltoa.o                    common/ltoa.s(9)
popa (popa.o):
    gotoxy.o                  telestrat/gotoxy.s(10)
popax (incsp2.o):
    vsnprintf.o               common/vsnprintf.s(9)
    open.o                    telestrat/open.s(3)
    ltoa.o                    common/ltoa.s(9)
    _printf.o                 common/_printf.s(11)
    write.o                   telestrat/write.s(5)
    vcprintf.o                conio/vcprintf.s(8)
    strchr.o                  common/strchr.s(9)
    strcat.o                  common/strcat.s(9)
    shelp.o                   runtime/shelp.s(11)
    read.o                    telestrat/read.s(7)
    memcpy.o                  common/memcpy.s(14)
    cputc.o                   telestrat/cputc.s(11)
popptr1 (popptr1.o):
    ltoa.o                    common/ltoa.s(9)
    write.o                   telestrat/write.s(5)
    vcprintf.o                conio/vcprintf.s(8)
    umod.o                    runtime/umod.s(8)
    udiv.o                    runtime/udiv.s(9)
    mul8.o                    runtime/mul8.s(9)
    mul.o                     runtime/mul.s(9)
    memcpy.o                  common/memcpy.s(14)
popsargsudiv16 (shelp.o):
    mod.o                     runtime/mod.s(11)
ptr1 (zeropage.o):
    vsnprintf.o               common/vsnprintf.s(11)
    strlower.o                common/strlower.s(13)
    ltoa.o                    common/ltoa.s(11)
    lcmp.o                    runtime/lcmp.s(10)
    _printf.o                 D:/Onedrive/oric/projets/github/jedeoric/cc65_clock_new/cc65/asminc/zeropage.inc(12)
    _fopen.o                  common/_fopen.s(12)
    zerobss.o                 common/zerobss.s(9)
    write.o                   telestrat/write.s(6)
    vcprintf.o                conio/vcprintf.s(10)
    udiv.o                    runtime/udiv.s(10)
    strchr.o                  common/strchr.s(10)
    strcat.o                  common/strcat.s(10)
    staspidx.o                runtime/staspidx.s(9)
    sprintf.o                 common/sprintf.s(9)
    shelp.o                   runtime/shelp.s(12)
    read.o                    D:/Onedrive/oric/projets/github/jedeoric/cc65_clock_new/cc65/asminc/zeropage.inc(12)
    popptr1.o                 runtime/popptr1.s(9)
    mulax6.o                  runtime/mulax6.s(9)
    mulax10.o                 runtime/mulax10.s(9)
    mul8.o                    runtime/mul8.s(10)
    mul.o                     runtime/mul.s(10)
    memcpy.o                  common/memcpy.s(15)
    malloc.o                  common/malloc.s(108)
    ldai.o                    runtime/ldai.s(8)
    joy-kernel.o              joystick/joy-kernel.s(8)
    fwrite.o                  common/fwrite.s(14)
    free.o                    common/free.s(62)
    fread.o                   common/fread.s(17)
    fclose.o                  common/fclose.s(11)
    cputs.o                   conio/cputs.s(10)
    cprintf.o                 conio/cprintf.s(9)
    main.o                    src/main.s(11)
ptr2 (zeropage.o):
    strlower.o                common/strlower.s(13)
    ltoa.o                    common/ltoa.s(11)
    _printf.o                 D:/Onedrive/oric/projets/github/jedeoric/cc65_clock_new/cc65/asminc/zeropage.inc(12)
    write.o                   telestrat/write.s(6)
    vcprintf.o                conio/vcprintf.s(10)
    strlen.o                  common/strlen.s(12)
    strcat.o                  common/strcat.s(10)
    read.o                    D:/Onedrive/oric/projets/github/jedeoric/cc65_clock_new/cc65/asminc/zeropage.inc(12)
    memcpy.o                  common/memcpy.s(15)
    malloc.o                  common/malloc.s(108)
    free.o                    common/free.s(62)
    main.o                    src/main.s(11)
ptr3 (zeropage.o):
    ltoa.o                    common/ltoa.s(11)
    write.o                   telestrat/write.s(6)
    vcprintf.o                conio/vcprintf.s(10)
    memcpy.o                  common/memcpy.s(15)
    malloc.o                  common/malloc.s(108)
    free.o                    common/free.s(62)
ptr4 (zeropage.o):
    umod.o                    runtime/umod.s(9)
    udiv.o                    runtime/udiv.s(10)
    shelp.o                   runtime/shelp.s(12)
    mul8.o                    runtime/mul8.s(10)
    mul.o                     runtime/mul.s(10)
    free.o                    common/free.s(62)
push1 (push1.o):
    _printf.o                 common/_printf.s(11)
pusha (pusha.o):
    main.o                    src/main.s(10352)
    main.o                    src/main.s(10352)
    main.o                    src/main.s(10352)
    main.o                    src/main.s(10352)
    main.o                    src/main.s(10352)
    main.o                    src/main.s(10352)
    main.o                    src/main.s(10352)
    main.o                    src/main.s(10352)
    main.o                    src/main.s(10352)
    main.o                    src/main.s(10352)
    main.o                    src/main.s(10352)
    main.o                    src/main.s(10352)
    main.o                    src/main.s(10352)
    main.o                    src/main.s(10352)
    main.o                    src/main.s(10352)
    main.o                    src/main.s(10352)
    main.o                    src/main.s(10352)
    main.o                    src/main.s(10352)
    main.o                    src/main.s(10352)
    main.o                    src/main.s(10352)
    main.o                    src/main.s(10352)
    main.o                    src/main.s(10352)
    main.o                    src/main.s(10352)
pusha0 (pushax.o):
    push1.o                   runtime/push1.s(8)
    fread.o                   common/fread.s(11)
    main.o                    src/main.s(10352)
    main.o                    src/main.s(10352)
    main.o                    src/main.s(10352)
    main.o                    src/main.s(10352)
    main.o                    src/main.s(10352)
    main.o                    src/main.s(10352)
    main.o                    src/main.s(10352)
    main.o                    src/main.s(10352)
    main.o                    src/main.s(10352)
    main.o                    src/main.s(10352)
    main.o                    src/main.s(10352)
    main.o                    src/main.s(10352)
    main.o                    src/main.s(10352)
    main.o                    src/main.s(10352)
    main.o                    src/main.s(10352)
    main.o                    src/main.s(10352)
    main.o                    src/main.s(10352)
    main.o                    src/main.s(10352)
    main.o                    src/main.s(10352)
    main.o                    src/main.s(10352)
pushax (pushax.o):
    callmain.o                runtime/callmain.s(11)
    _printf.o                 common/_printf.s(11)
    vcprintf.o                conio/vcprintf.s(8)
    fwrite.o                  common/fwrite.s(11)
    fread.o                   common/fread.s(11)
    fopen.o                   common/fopen.s(11)
    cprintf.o                 conio/cprintf.s(8)
    main.o                    src/main.s(10352)
    main.o                    src/main.s(10352)
    main.o                    src/main.s(10352)
    main.o                    src/main.s(10352)
    main.o                    src/main.s(10352)
    main.o                    src/main.s(10352)
    main.o                    src/main.s(10352)
    main.o                    src/main.s(10352)
    main.o                    src/main.s(10352)
    main.o                    src/main.s(10352)
    main.o                    src/main.s(10352)
    main.o                    src/main.s(10352)
    main.o                    src/main.s(10352)
    main.o                    src/main.s(10352)
    main.o                    src/main.s(10352)
    main.o                    src/main.s(10352)
    main.o                    src/main.s(10352)
    main.o                    src/main.s(10352)
    main.o                    src/main.s(10352)
    main.o                    src/main.s(10352)
    main.o                    src/main.s(10352)
pusheax (lpush.o):
    _printf.o                 common/_printf.s(11)
    main.o                    src/main.s(10352)
pushw0sp (pushwsp.o):
    vsprintf.o                common/vsprintf.s(8)
pushwysp (pushwsp.o):
    fwrite.o                  common/fwrite.s(11)
    fread.o                   common/fread.s(14)
    main.o                    src/main.s(10352)
regbank (zeropage.o):
    _printf.o                 D:/Onedrive/oric/projets/github/jedeoric/cc65_clock_new/cc65/asminc/zeropage.inc(14)
    fread.o                   common/fread.s(31)
return0 (return0.o):
    _fopen.o                  common/_fopen.s(11)
    _fdesc.o                  common/_fdesc.s(9)
shlax2 (aslax2.o):
    main.o                    src/main.s(10352)
    main.o                    src/main.s(10352)
shlax3 (aslax3.o):
    main.o                    src/main.s(10352)
    main.o                    src/main.s(10352)
shlax4 (aslax4.o):
    main.o                    src/main.s(10352)
    main.o                    src/main.s(10352)
shrax1 (shrax1.o):
    main.o                    src/main.s(10352)
sp (zeropage.o):
    vsnprintf.o               common/vsnprintf.s(11)
    lcmp.o                    runtime/lcmp.s(10)
    _printf.o                 D:/Onedrive/oric/projets/github/jedeoric/cc65_clock_new/cc65/asminc/zeropage.inc(11)
    _heap.o                   common/_heap.s(9)
    _fopen.o                  common/_fopen.s(12)
    vcprintf.o                conio/vcprintf.s(10)
    subysp.o                  runtime/subysp.s(9)
    sub.o                     runtime/sub.s(9)
    staxsp.o                  runtime/staxsp.s(8)
    staspidx.o                runtime/staspidx.s(9)
    sprintf.o                 common/sprintf.s(9)
    pushwsp.o                 runtime/pushwsp.s(8)
    pushax.o                  runtime/pushax.s(8)
    pusha.o                   runtime/pusha.s(8)
    popptr1.o                 runtime/popptr1.s(9)
    popa.o                    runtime/popa.s(8)
    memcpy.o                  common/memcpy.s(15)
    lsub.o                    runtime/lsub.s(12)
    lpush.o                   runtime/lpush.s(13)
    ldaxsp.o                  runtime/ldaxsp.s(8)
    incsp2.o                  runtime/incsp2.s(8)
    incsp1.o                  runtime/incsp1.s(8)
    icmp.o                    runtime/icmp.s(9)
    fread.o                   common/fread.s(17)
    decsp8.o                  runtime/decsp8.s(8)
    decsp7.o                  runtime/decsp7.s(8)
    decsp6.o                  runtime/decsp6.s(8)
    decsp5.o                  runtime/decsp5.s(8)
    decsp4.o                  runtime/decsp4.s(8)
    decsp3.o                  runtime/decsp3.s(8)
    decsp2.o                  runtime/decsp2.s(8)
    decsp1.o                  runtime/decsp1.s(8)
    crt0.o                    D:/Onedrive/oric/projets/github/jedeoric/cc65_clock_new/cc65/asminc/zeropage.inc(11)
    cprintf.o                 conio/cprintf.s(9)
    addysp.o                  runtime/addysp.s(8)
    add.o                     runtime/add.s(12)
    main.o                    src/main.s(10)
sreg (zeropage.o):
    lneg.o                    runtime/lneg.s(11)
    ltoa.o                    common/ltoa.s(11)
    lcmp.o                    runtime/lcmp.s(10)
    axlong.o                  runtime/axlong.s(9)
    _printf.o                 D:/Onedrive/oric/projets/github/jedeoric/cc65_clock_new/cc65/asminc/zeropage.inc(11)
    umod.o                    runtime/umod.s(9)
    udiv.o                    runtime/udiv.s(10)
    mod.o                     runtime/mod.s(12)
    lsub.o                    runtime/lsub.s(12)
    lpush.o                   runtime/lpush.s(13)
    icmp.o                    runtime/icmp.s(9)
    clock.o                   telestrat/clock.s(8)
    main.o                    src/main.s(10)
staspidx (staspidx.o):
    main.o                    src/main.s(10352)
    main.o                    src/main.s(10352)
    main.o                    src/main.s(10352)
stax0sp (staxsp.o):
    main.o                    src/main.s(10352)
    main.o                    src/main.s(10352)
    main.o                    src/main.s(10352)
    main.o                    src/main.s(10352)
staxysp (staxsp.o):
    vsprintf.o                common/vsprintf.s(8)
    main.o                    src/main.s(10352)
    main.o                    src/main.s(10352)
    main.o                    src/main.s(10352)
    main.o                    src/main.s(10352)
    main.o                    src/main.s(10352)
    main.o                    src/main.s(10352)
subysp (subysp.o):
    main.o                    src/main.s(10352)
    main.o                    src/main.s(10352)
    main.o                    src/main.s(10352)
    main.o                    src/main.s(10352)
    main.o                    src/main.s(10352)
    main.o                    src/main.s(10352)
    main.o                    src/main.s(10352)
    main.o                    src/main.s(10352)
tmp1 (zeropage.o):
    ltoa.o                    common/ltoa.s(11)
    _printf.o                 D:/Onedrive/oric/projets/github/jedeoric/cc65_clock_new/cc65/asminc/zeropage.inc(13)
    vcprintf.o                conio/vcprintf.s(10)
    strchr.o                  common/strchr.s(10)
    staspidx.o                runtime/staspidx.s(9)
    shrax1.o                  runtime/shrax1.s(8)
    shelp.o                   runtime/shelp.s(12)
    mul.o                     runtime/mul.s(10)
    mod.o                     runtime/mod.s(12)
    cputs.o                   conio/cputs.s(10)
    aslax4.o                  runtime/aslax4.s(8)
    aslax3.o                  runtime/aslax3.s(8)
    aslax2.o                  runtime/aslax2.s(8)
    add.o                     runtime/add.s(12)
    main.o                    src/main.s(11)
tmp2 (zeropage.o):
    shelp.o                   runtime/shelp.s(12)
tmp3 (zeropage.o):
    open.o                    telestrat/open.s(5)
    strcat.o                  common/strcat.s(10)
tosaddax (add.o):
    main.o                    src/main.s(10352)
    main.o                    src/main.s(10352)
    main.o                    src/main.s(10352)
tosicmp (icmp.o):
    main.o                    src/main.s(10352)
    main.o                    src/main.s(10352)
    main.o                    src/main.s(10352)
    main.o                    src/main.s(10352)
toslcmp (lcmp.o):
    lult.o                    runtime/lult.s(8)
tosmoda0 (mod.o):
    main.o                    src/main.s(10352)
tosmula0 (mul8.o):
    main.o                    src/main.s(10352)
    main.o                    src/main.s(10352)
    main.o                    src/main.s(10352)
    main.o                    src/main.s(10352)
    main.o                    src/main.s(10352)
    main.o                    src/main.s(10352)
    main.o                    src/main.s(10352)
    main.o                    src/main.s(10352)
tossub0ax (lsub.o):
    main.o                    src/main.s(10352)
tossuba0 (sub.o):
    main.o                    src/main.s(10352)
tossubax (sub.o):
    main.o                    src/main.s(10352)
    main.o                    src/main.s(10352)
tosudiva0 (udiv.o):
    main.o                    src/main.s(10352)
tosudivax (udiv.o):
    fwrite.o                  common/fwrite.s(12)
    fread.o                   common/fread.s(15)
tosulteax (lult.o):
    main.o                    src/main.s(10352)
tosumoda0 (umod.o):
    main.o                    src/main.s(10352)
tosumula0 (mul8.o):
    main.o                    src/main.s(10352)
    main.o                    src/main.s(10352)
    main.o                    src/main.s(10352)
    main.o                    src/main.s(10352)
tosumulax (mul.o):
    fwrite.o                  common/fwrite.s(12)
    fread.o                   common/fread.s(15)
udiv16 (udiv.o):
    umod.o                    runtime/umod.s(8)
    shelp.o                   runtime/shelp.s(11)
update_adscr (gotoxy.o):
    cputc.o                   telestrat/cputc.s(10)
vsnprintf (vsnprintf.o):
    vsprintf.o                common/vsprintf.s(9)
zerobss (zerobss.o):
    crt0.o                    telestrat/crt0.s(11)

